; ModuleID = '31/1253.c'
source_filename = "31/1253.c"
target datalayout = "e-m:e-p270:32:32-p271:32:32-p272:64:64-i64:64-f80:128-n8:16:32:64-S128"
target triple = "x86_64-pc-linux-gnu"

%struct.stu = type { [15 x i8], [20 x i8], i8, i32, [10 x i8], [15 x i8], %struct.stu* }

@.str = private unnamed_addr constant [14 x i8] c"%s%s %c%d%s%s\00", align 1
@.str.1 = private unnamed_addr constant [3 x i8] c"%s\00", align 1
@.str.2 = private unnamed_addr constant [12 x i8] c"%s %c%d%s%s\00", align 1
@.str.3 = private unnamed_addr constant [19 x i8] c"%s %s %c %d %s %s\0A\00", align 1

; Function Attrs: noinline nounwind uwtable
define dso_local i32 @main() #0 {
  %1 = alloca i32, align 4
  %2 = alloca %struct.stu*, align 8
  %3 = alloca %struct.stu*, align 8
  store i32 0, i32* %1, align 4
  %4 = call noalias i8* @malloc(i64 100) #3
  %5 = bitcast i8* %4 to %struct.stu*
  store %struct.stu* %5, %struct.stu** %2, align 8
  %6 = load %struct.stu*, %struct.stu** %2, align 8
  %7 = getelementptr inbounds %struct.stu, %struct.stu* %6, i32 0, i32 0
  %8 = getelementptr inbounds [15 x i8], [15 x i8]* %7, i64 0, i64 0
  %9 = load %struct.stu*, %struct.stu** %2, align 8
  %10 = getelementptr inbounds %struct.stu, %struct.stu* %9, i32 0, i32 1
  %11 = getelementptr inbounds [20 x i8], [20 x i8]* %10, i64 0, i64 0
  %12 = load %struct.stu*, %struct.stu** %2, align 8
  %13 = getelementptr inbounds %struct.stu, %struct.stu* %12, i32 0, i32 2
  %14 = load %struct.stu*, %struct.stu** %2, align 8
  %15 = getelementptr inbounds %struct.stu, %struct.stu* %14, i32 0, i32 3
  %16 = load %struct.stu*, %struct.stu** %2, align 8
  %17 = getelementptr inbounds %struct.stu, %struct.stu* %16, i32 0, i32 4
  %18 = getelementptr inbounds [10 x i8], [10 x i8]* %17, i64 0, i64 0
  %19 = load %struct.stu*, %struct.stu** %2, align 8
  %20 = getelementptr inbounds %struct.stu, %struct.stu* %19, i32 0, i32 5
  %21 = getelementptr inbounds [15 x i8], [15 x i8]* %20, i64 0, i64 0
  %22 = call i32 (i8*, ...) @__isoc99_scanf(i8* getelementptr inbounds ([14 x i8], [14 x i8]* @.str, i64 0, i64 0), i8* %8, i8* %11, i8* %13, i32* %15, i8* %18, i8* %21)
  %23 = load %struct.stu*, %struct.stu** %2, align 8
  %24 = getelementptr inbounds %struct.stu, %struct.stu* %23, i32 0, i32 6
  store %struct.stu* null, %struct.stu** %24, align 8
  br label %25

25:                                               ; preds = %0, %39
  %26 = call noalias i8* @malloc(i64 100) #3
  %27 = bitcast i8* %26 to %struct.stu*
  store %struct.stu* %27, %struct.stu** %3, align 8
  %28 = load %struct.stu*, %struct.stu** %3, align 8
  %29 = getelementptr inbounds %struct.stu, %struct.stu* %28, i32 0, i32 0
  %30 = getelementptr inbounds [15 x i8], [15 x i8]* %29, i64 0, i64 0
  %31 = call i32 (i8*, ...) @__isoc99_scanf(i8* getelementptr inbounds ([3 x i8], [3 x i8]* @.str.1, i64 0, i64 0), i8* %30)
  %32 = load %struct.stu*, %struct.stu** %3, align 8
  %33 = getelementptr inbounds %struct.stu, %struct.stu* %32, i32 0, i32 0
  %34 = getelementptr inbounds [15 x i8], [15 x i8]* %33, i64 0, i64 0
  %35 = load i8, i8* %34, align 8
  %36 = sext i8 %35 to i32
  %37 = icmp eq i32 %36, 101
  br i1 %37, label %38, label %39

38:                                               ; preds = %25
  br label %58

39:                                               ; preds = %25
  %40 = load %struct.stu*, %struct.stu** %3, align 8
  %41 = getelementptr inbounds %struct.stu, %struct.stu* %40, i32 0, i32 1
  %42 = getelementptr inbounds [20 x i8], [20 x i8]* %41, i64 0, i64 0
  %43 = load %struct.stu*, %struct.stu** %3, align 8
  %44 = getelementptr inbounds %struct.stu, %struct.stu* %43, i32 0, i32 2
  %45 = load %struct.stu*, %struct.stu** %3, align 8
  %46 = getelementptr inbounds %struct.stu, %struct.stu* %45, i32 0, i32 3
  %47 = load %struct.stu*, %struct.stu** %3, align 8
  %48 = getelementptr inbounds %struct.stu, %struct.stu* %47, i32 0, i32 4
  %49 = getelementptr inbounds [10 x i8], [10 x i8]* %48, i64 0, i64 0
  %50 = load %struct.stu*, %struct.stu** %3, align 8
  %51 = getelementptr inbounds %struct.stu, %struct.stu* %50, i32 0, i32 5
  %52 = getelementptr inbounds [15 x i8], [15 x i8]* %51, i64 0, i64 0
  %53 = call i32 (i8*, ...) @__isoc99_scanf(i8* getelementptr inbounds ([12 x i8], [12 x i8]* @.str.2, i64 0, i64 0), i8* %42, i8* %44, i32* %46, i8* %49, i8* %52)
  %54 = load %struct.stu*, %struct.stu** %2, align 8
  %55 = load %struct.stu*, %struct.stu** %3, align 8
  %56 = getelementptr inbounds %struct.stu, %struct.stu* %55, i32 0, i32 6
  store %struct.stu* %54, %struct.stu** %56, align 8
  %57 = load %struct.stu*, %struct.stu** %3, align 8
  store %struct.stu* %57, %struct.stu** %2, align 8
  br label %25

58:                                               ; preds = %38
  br label %59

59:                                               ; preds = %62, %58
  %60 = load %struct.stu*, %struct.stu** %2, align 8
  %61 = icmp ne %struct.stu* %60, null
  br i1 %61, label %62, label %86

62:                                               ; preds = %59
  %63 = load %struct.stu*, %struct.stu** %2, align 8
  %64 = getelementptr inbounds %struct.stu, %struct.stu* %63, i32 0, i32 0
  %65 = getelementptr inbounds [15 x i8], [15 x i8]* %64, i64 0, i64 0
  %66 = load %struct.stu*, %struct.stu** %2, align 8
  %67 = getelementptr inbounds %struct.stu, %struct.stu* %66, i32 0, i32 1
  %68 = getelementptr inbounds [20 x i8], [20 x i8]* %67, i64 0, i64 0
  %69 = load %struct.stu*, %struct.stu** %2, align 8
  %70 = getelementptr inbounds %struct.stu, %struct.stu* %69, i32 0, i32 2
  %71 = load i8, i8* %70, align 1
  %72 = sext i8 %71 to i32
  %73 = load %struct.stu*, %struct.stu** %2, align 8
  %74 = getelementptr inbounds %struct.stu, %struct.stu* %73, i32 0, i32 3
  %75 = load i32, i32* %74, align 4
  %76 = load %struct.stu*, %struct.stu** %2, align 8
  %77 = getelementptr inbounds %struct.stu, %struct.stu* %76, i32 0, i32 4
  %78 = getelementptr inbounds [10 x i8], [10 x i8]* %77, i64 0, i64 0
  %79 = load %struct.stu*, %struct.stu** %2, align 8
  %80 = getelementptr inbounds %struct.stu, %struct.stu* %79, i32 0, i32 5
  %81 = getelementptr inbounds [15 x i8], [15 x i8]* %80, i64 0, i64 0
  %82 = call i32 (i8*, ...) @printf(i8* getelementptr inbounds ([19 x i8], [19 x i8]* @.str.3, i64 0, i64 0), i8* %65, i8* %68, i32 %72, i32 %75, i8* %78, i8* %81)
  %83 = load %struct.stu*, %struct.stu** %2, align 8
  %84 = getelementptr inbounds %struct.stu, %struct.stu* %83, i32 0, i32 6
  %85 = load %struct.stu*, %struct.stu** %84, align 8
  store %struct.stu* %85, %struct.stu** %2, align 8
  br label %59

86:                                               ; preds = %59
  ret i32 0
}

; Function Attrs: nounwind
declare dso_local noalias i8* @malloc(i64) #1

declare dso_local i32 @__isoc99_scanf(i8*, ...) #2

declare dso_local i32 @printf(i8*, ...) #2


!llvm.module.flags = !{!0}
!llvm.ident = !{!1}

!0 = !{i32 1, !"wchar_size", i32 4}
!1 = !{!"clang version 10.0.0-4ubuntu1 "}
